(dp0
S'G7'
p1
(lp2
S'(70, 70, 0, 255)'
p3
aNaS'G7'
p4
asS'G6'
p5
(lp6
S'(70, 60, 0, 255)'
p7
aNaS'G6'
p8
asS'G5'
p9
(lp10
S'(70, 50, 0, 255)'
p11
aNaS'G5'
p12
asS'G4'
p13
(lp14
S'(70, 40, 0, 255)'
p15
a(F307.0
F286.0
tp16
aS'G4'
p17
asS'G3'
p18
(lp19
S'(70, 30, 0, 255)'
p20
a(F307.0
F321.0
tp21
aS'G3'
p22
asS'G2'
p23
(lp24
S'(70, 20, 0, 255)'
p25
a(F307.0
F355.0
tp26
aS'G2'
p27
asS'G1'
p28
(lp29
S'(70, 10, 0, 255)'
p30
a(F307.0
F393.0
tp31
aS'G1'
p32
asS'G9'
p33
(lp34
S'(70, 90, 0, 255)'
p35
a(F322.0
F258.0
tp36
aS'G9'
p37
asS'G8'
p38
(lp39
S'(70, 80, 0, 255)'
p40
aNaS'G8'
p41
asS'J8'
p42
(lp43
S'(100, 80, 0, 255)'
p44
a(F116.0
F107.0
tp45
aS'J8'
p46
asS'J9'
p47
(lp48
S'(100, 90, 0, 255)'
p49
a(F252.0
F165.0
tp50
aS'J9'
p51
asS'J4'
p52
(lp53
S'(100, 40, 0, 255)'
p54
aNaS'J4'
p55
asS'J5'
p56
(lp57
S'(100, 50, 0, 255)'
p58
a(F216.0
F165.0
tp59
aS'J5'
p60
asS'J6'
p61
(lp62
S'(100, 60, 0, 255)'
p63
a(F183.0
F146.0
tp64
aS'J6'
p65
asS'J7'
p66
(lp67
S'(100, 70, 0, 255)'
p68
a(F149.0
F127.0
tp69
aS'J7'
p70
asS'J1'
p71
(lp72
S'(100, 10, 0, 255)'
p73
aNaS'J1'
p74
asS'J2'
p75
(lp76
S'(100, 20, 0, 255)'
p77
aNaS'J2'
p78
asS'J3'
p79
(lp80
S'(100, 30, 0, 255)'
p81
aNaS'J3'
p82
asS'B4'
p83
(lp84
S'(20, 40, 0, 255)'
p85
a(F162.0
F286.0
tp86
aS'B4'
p87
asS'B5'
p88
(lp89
S'(20, 50, 0, 255)'
p90
a(F147.0
F258.0
tp91
aS'B5'
p92
asS'B6'
p93
(lp94
S'(20, 60, 0, 255)'
p95
a(F117.0
F240.0
tp96
aS'B6'
p97
asS'B7'
p98
(lp99
S'(20, 70, 0, 255)'
p100
a(F86.0
F223.0
tp101
aS'B7'
p102
asS'B1'
p103
(lp104
S'(20, 10, 0, 255)'
p105
a(F162.0
F393.0
tp106
aS'B1'
p107
asS'B2'
p108
(lp109
S'(20, 20, 0, 255)'
p110
a(F162.0
F355.0
tp111
aS'B2'
p112
asS'B3'
p113
(lp114
S'(20, 30, 0, 255)'
p115
a(F162.0
F321.0
tp116
aS'B3'
p117
asS'K7'
p118
(lp119
S'(110, 70, 0, 255)'
p120
a(F159.0
F99.0
tp121
aS'K7'
p122
asS'B8'
p123
(lp124
S'(20, 80, 0, 255)'
p125
a(F57.0
F206.0
tp126
aS'B8'
p127
asS'B9'
p128
(lp129
S'(20, 90, 0, 255)'
p130
aNaS'B9'
p131
asS'K5'
p132
(lp133
S'(110, 50, 0, 255)'
p134
a(F219.0
F133.0
tp135
aS'K5'
p136
asS'K4'
p137
(lp138
S'(110, 40, 0, 255)'
p139
aNaS'K4'
p140
asS'L10'
p141
(lp142
S'(120, 100, 0, 255)'
p143
a(F274.0
F86.0
tp144
aS'L10'
p145
asS'L11'
p146
(lp147
S'(120, 110, 0, 255)'
p148
a(F301.0
F71.0
tp149
aS'L11'
p150
asS'L12'
p151
(lp152
S'(120, 120, 0, 255)'
p153
a(F328.0
F55.0
tp154
aS'L12'
p155
asS'E9'
p156
(lp157
S'(50, 90, 0, 255)'
p158
a(F273.0
F221.0
tp159
aS'E9'
p160
asS'E8'
p161
(lp162
S'(50, 80, 0, 255)'
p163
aNaS'E8'
p164
asS'E5'
p165
(lp166
S'(50, 50, 0, 255)'
p167
aNaS'E5'
p168
asS'E4'
p169
(lp170
S'(50, 40, 0, 255)'
p171
a(F249.0
F257.0
tp172
aS'E4'
p173
asS'E7'
p174
(lp175
S'(50, 70, 0, 255)'
p176
aNaS'E7'
p177
asS'E6'
p178
(lp179
S'(50, 60, 0, 255)'
p180
aNaS'E6'
p181
asS'E1'
p182
(lp183
S'(50, 10, 0, 255)'
p184
a(F249.0
F393.0
tp185
aS'E1'
p186
asS'E3'
p187
(lp188
S'(50, 30, 0, 255)'
p189
a(F249.0
F299.0
tp190
aS'E3'
p191
asS'E2'
p192
(lp193
S'(50, 20, 0, 255)'
p194
a(F249.0
F344.0
tp195
aS'E2'
p196
asS'H10'
p197
(lp198
S'(80, 100, 0, 255)'
p199
a(F376.0
F260.0
tp200
aS'H10'
p201
asS'H11'
p202
(lp203
S'(80, 110, 0, 255)'
p204
a(F402.0
F245.0
tp205
aS'H11'
p206
asS'H12'
p207
(lp208
S'(80, 120, 0, 255)'
p209
a(F429.0
F230.0
tp210
aS'H12'
p211
asS'F12'
p212
(lp213
S'(60, 120, 0, 255)'
p214
a(F399.0
F181.0
tp215
aS'F12'
p216
asS'F10'
p217
(lp218
S'(60, 100, 0, 255)'
p219
a(F331.0
F220.0
tp220
aS'F10'
p221
asS'F11'
p222
(lp223
S'(60, 110, 0, 255)'
p224
a(F365.0
F201.0
tp225
aS'F11'
p226
asS'H8'
p227
(lp228
S'(80, 80, 0, 255)'
p229
aNaS'H8'
p230
asS'H9'
p231
(lp232
S'(80, 90, 0, 255)'
p233
a(F349.0
F276.0
tp234
aS'H9'
p235
asS'H2'
p236
(lp237
S'(80, 20, 0, 255)'
p238
a(F336.0
F362.0
tp239
aS'H2'
p240
asS'H3'
p241
(lp242
S'(80, 30, 0, 255)'
p243
a(F336.0
F331.0
tp244
aS'H3'
p245
asS'H1'
p246
(lp247
S'(80, 10, 0, 255)'
p248
a(F336.0
F393.0
tp249
aS'H1'
p250
asS'H6'
p251
(lp252
S'(80, 60, 0, 255)'
p253
aNaS'H6'
p254
asS'H7'
p255
(lp256
S'(80, 70, 0, 255)'
p257
aNaS'H7'
p258
asS'H4'
p259
(lp260
S'(80, 40, 0, 255)'
p261
a(F336.0
F300.0
tp262
aS'H4'
p263
asS'H5'
p264
(lp265
S'(80, 50, 0, 255)'
p266
aNaS'H5'
p267
asS'K12'
p268
(lp269
S'(110, 120, 0, 255)'
p270
a(F342.0
F81.0
tp271
aS'K12'
p272
asS'K11'
p273
(lp274
S'(110, 110, 0, 255)'
p275
a(F311.0
F99.0
tp276
aS'K11'
p277
asS'K10'
p278
(lp279
S'(110, 100, 0, 255)'
p280
a(F281.0
F116.0
tp281
aS'K10'
p282
asS'D10'
p283
(lp284
S'(40, 100, 0, 255)'
p285
aNaS'D10'
p286
asS'D11'
p287
(lp288
S'(40, 110, 0, 255)'
p289
aNaS'D11'
p290
asS'D12'
p291
(lp292
S'(40, 120, 0, 255)'
p293
aNaS'D12'
p294
asS'K3'
p295
(lp296
S'(110, 30, 0, 255)'
p297
aNaS'K3'
p298
asS'K2'
p299
(lp300
S'(110, 20, 0, 255)'
p301
aNaS'K2'
p302
asS'K1'
p303
(lp304
S'(110, 10, 0, 255)'
p305
aNaS'K1'
p306
asS'B12'
p307
(lp308
S'(20, 120, 0, 255)'
p309
aNaS'B12'
p310
asS'K6'
p311
(lp312
S'(110, 60, 0, 255)'
p313
a(F189.0
F116.0
tp314
aS'K6'
p315
asS'B10'
p316
(lp317
S'(20, 100, 0, 255)'
p318
aNaS'B10'
p319
asS'B11'
p320
(lp321
S'(20, 110, 0, 255)'
p322
aNaS'B11'
p323
asS'K9'
p324
(lp325
S'(110, 90, 0, 255)'
p326
a(F249.0
F134.0
tp327
aS'K9'
p328
asS'K8'
p329
(lp330
S'(110, 80, 0, 255)'
p331
a(F129.0
F82.0
tp332
aS'K8'
p333
asS'C9'
p334
(lp335
S'(30, 90, 0, 255)'
p336
aNaS'C9'
p337
asS'C8'
p338
(lp339
S'(30, 80, 0, 255)'
p340
a(F72.0
F182.0
tp341
aS'C8'
p342
asS'C3'
p343
(lp344
S'(30, 30, 0, 255)'
p345
a(F192.0
F310.0
tp346
aS'C3'
p347
asS'C2'
p348
(lp349
S'(30, 20, 0, 255)'
p350
a(F192.0
F349.0
tp351
aS'C2'
p352
asS'C1'
p353
(lp354
S'(30, 10, 0, 255)'
p355
a(F192.0
F393.0
tp356
aS'C1'
p357
asS'C7'
p358
(lp359
S'(30, 70, 0, 255)'
p360
a(F106.0
F201.0
tp361
aS'C7'
p362
asS'C6'
p363
(lp364
S'(30, 60, 0, 255)'
p365
a(F139.0
F220.0
tp366
aS'C6'
p367
asS'C5'
p368
(lp369
S'(30, 50, 0, 255)'
p370
a(F172.0
F240.0
tp371
aS'C5'
p372
asS'C4'
p373
(lp374
S'(30, 40, 0, 255)'
p375
a(F192.0
F271.0
tp376
aS'C4'
p377
asS'I11'
p378
(lp379
S'(90, 110, 0, 255)'
p380
a(F332.0
F153.0
tp381
aS'I11'
p382
asS'I10'
p383
(lp384
S'(90, 100, 0, 255)'
p385
a(F294.0
F174.0
tp386
aS'I10'
p387
asS'I12'
p388
(lp389
S'(90, 120, 0, 255)'
p390
a(F370.0
F131.0
tp391
aS'I12'
p392
asS'G12'
p393
(lp394
S'(70, 120, 0, 255)'
p395
a(F415.0
F206.0
tp396
aS'G12'
p397
asS'G11'
p398
(lp399
S'(70, 110, 0, 255)'
p400
a(F384.0
F223.0
tp401
aS'G11'
p402
asS'G10'
p403
(lp404
S'(70, 100, 0, 255)'
p405
a(F353.0
F241.0
tp406
aS'G10'
p407
asS'F1'
p408
(lp409
S'(60, 10, 0, 255)'
p410
a(F277.0
F393.0
tp411
aS'F1'
p412
asS'F2'
p413
(lp414
S'(60, 20, 0, 255)'
p415
a(F277.0
F349.0
tp416
aS'F2'
p417
asS'F3'
p418
(lp419
S'(60, 30, 0, 255)'
p420
a(F277.0
F310.0
tp421
aS'F3'
p422
asS'F4'
p423
(lp424
S'(60, 40, 0, 255)'
p425
a(F277.0
F271.0
tp426
aS'F4'
p427
asS'F5'
p428
(lp429
S'(60, 50, 0, 255)'
p430
aNaS'F5'
p431
asS'F6'
p432
(lp433
S'(60, 60, 0, 255)'
p434
aNaS'F6'
p435
asS'F7'
p436
(lp437
S'(60, 70, 0, 255)'
p438
aNaS'F7'
p439
asS'F8'
p440
(lp441
S'(60, 80, 0, 255)'
p442
aNaS'F8'
p443
asS'F9'
p444
(lp445
S'(60, 90, 0, 255)'
p446
a(F297.0
F240.0
tp447
aS'F9'
p448
asS'J10'
p449
(lp450
S'(100, 100, 0, 255)'
p451
a(F287.0
F146.0
tp452
aS'J10'
p453
asS'J11'
p454
(lp455
S'(100, 110, 0, 255)'
p456
a(F321.0
F126.0
tp457
aS'J11'
p458
asS'E11'
p459
(lp460
S'(50, 110, 0, 255)'
p461
a(F347.0
F178.0
tp462
aS'E11'
p463
asS'E10'
p464
(lp465
S'(50, 100, 0, 255)'
p466
a(F308.0
F200.0
tp467
aS'E10'
p468
asS'E12'
p469
(lp470
S'(50, 120, 0, 255)'
p471
a(F384.0
F156.0
tp472
aS'E12'
p473
asS'C12'
p474
(lp475
S'(30, 120, 0, 255)'
p476
aNaS'C12'
p477
asS'C11'
p478
(lp479
S'(30, 110, 0, 255)'
p480
aNaS'C11'
p481
asS'C10'
p482
(lp483
S'(30, 100, 0, 255)'
p484
aNaS'C10'
p485
asS'I9'
p486
(lp487
S'(90, 90, 0, 255)'
p488
a(F256.0
F196.0
tp489
aS'I9'
p490
asS'I8'
p491
(lp492
S'(90, 80, 0, 255)'
p493
a(F102.0
F133.0
tp494
aS'I8'
p495
asS'A11'
p496
(lp497
S'(10, 110, 0, 255)'
p498
aNaS'A11'
p499
asS'A10'
p500
(lp501
S'(10, 100, 0, 255)'
p502
aNaS'A10'
p503
asS'A12'
p504
(lp505
S'(10, 120, 0, 255)'
p506
aNaS'A12'
p507
asS'I1'
p508
(lp509
S'(90, 10, 0, 255)'
p510
aNaS'I1'
p511
asS'I3'
p512
(lp513
S'(90, 30, 0, 255)'
p514
aNaS'I3'
p515
asS'I2'
p516
(lp517
S'(90, 20, 0, 255)'
p518
aNaS'I2'
p519
asS'I5'
p520
(lp521
S'(90, 50, 0, 255)'
p522
a(F211.0
F194.0
tp523
aS'I5'
p524
asS'I4'
p525
(lp526
S'(90, 40, 0, 255)'
p527
aNaS'I4'
p528
asS'I7'
p529
(lp530
S'(90, 70, 0, 255)'
p531
a(F138.0
F154.0
tp532
aS'I7'
p533
asS'I6'
p534
(lp535
S'(90, 60, 0, 255)'
p536
a(F176.0
F175.0
tp537
aS'I6'
p538
asS'A1'
p539
(lp540
S'(10, 10, 0, 255)'
p541
a(F134.0
F393.0
tp542
aS'A1'
p543
asS'A3'
p544
(lp545
S'(10, 30, 0, 255)'
p546
a(F134.0
F331.0
tp547
aS'A3'
p548
asS'A2'
p549
(lp550
S'(10, 20, 0, 255)'
p551
a(F134.0
F362.0
tp552
aS'A2'
p553
asS'A5'
p554
(lp555
S'(10, 50, 0, 255)'
p556
a(F121.0
F277.0
tp557
aS'A5'
p558
asS'A4'
p559
(lp560
S'(10, 40, 0, 255)'
p561
a(F134.0
F301.0
tp562
aS'A4'
p563
asS'A7'
p564
(lp565
S'(10, 70, 0, 255)'
p566
a(F67.0
F246.0
tp567
aS'A7'
p568
asS'A6'
p569
(lp570
S'(10, 60, 0, 255)'
p571
a(F94.0
F262.0
tp572
aS'A6'
p573
asS'A9'
p574
(lp575
S'(10, 90, 0, 255)'
p576
aNaS'A9'
p577
asS'A8'
p578
(lp579
S'(10, 80, 0, 255)'
p580
a(F41.0
F231.0
tp581
aS'A8'
p582
asS'J12'
p583
(lp584
S'(100, 120, 0, 255)'
p585
a(F356.0
F107.0
tp586
aS'J12'
p587
asS'L6'
p588
(lp589
S'(120, 60, 0, 255)'
p590
a(F67.0
F246.0
tp591
aS'L6'
p592
asS'L7'
p593
(lp594
S'(120, 70, 0, 255)'
p595
a(F168.0
F71.0
tp596
aS'L7'
p597
asS'L4'
p598
(lp599
S'(120, 40, 0, 255)'
p600
aNaS'L4'
p601
asS'L5'
p602
(lp603
S'(120, 50, 0, 255)'
p604
a(F220.0
F102.0
tp605
aS'L5'
p606
asS'L2'
p607
(lp608
S'(120, 20, 0, 255)'
p609
aNaS'L2'
p610
asS'L3'
p611
(lp612
S'(120, 30, 0, 255)'
p613
aNaS'L3'
p614
asS'L1'
p615
(lp616
S'(120, 10, 0, 255)'
p617
aNaS'L1'
p618
asS'L8'
p619
(lp620
S'(120, 80, 0, 255)'
p621
a(F142.0
F56.0
tp622
aS'L8'
p623
asS'L9'
p624
(lp625
S'(120, 90, 0, 255)'
p626
a(F247.0
F102.0
tp627
aS'L9'
p628
asS'D8'
p629
(lp630
S'(40, 80, 0, 255)'
p631
a(F88.0
F157.0
tp632
aS'D8'
p633
asS'D9'
p634
(lp635
S'(40, 90, 0, 255)'
p636
aNaS'D9'
p637
asS'D6'
p638
(lp639
S'(40, 60, 0, 255)'
p640
a(F160.0
F199.0
tp641
aS'D6'
p642
asS'D7'
p643
(lp644
S'(40, 70, 0, 255)'
p645
a(F124.0
F178.0
tp646
aS'D7'
p647
asS'D4'
p648
(lp649
S'(40, 40, 0, 255)'
p650
a(F220.0
F257.0
tp651
aS'D4'
p652
asS'D5'
p653
(lp654
S'(40, 50, 0, 255)'
p655
a(F197.0
F221.0
tp656
aS'D5'
p657
asS'D2'
p658
(lp659
S'(40, 20, 0, 255)'
p660
a(F220.0
F344.0
tp661
aS'D2'
p662
asS'D3'
p663
(lp664
S'(40, 30, 0, 255)'
p665
a(F220.0
F299.0
tp666
aS'D3'
p667
asS'D1'
p668
(lp669
S'(40, 10, 0, 255)'
p670
a(F220.0
F393.0
tp671
aS'D1'
p672
as.